; Function Attrs: mustprogress nofree norecurse nosync nounwind memory(readwrite, inaccessiblemem: none) uwtable
define void @_ZN6colvar11eigenvector14calc_gradientsEv(ptr noundef nonnull readonly align 8 captures(none) dereferenceable(1672) %0) unnamed_addr #8 align 2 {
  %2 = getelementptr inbounds nuw i8, ptr %0, i64 1608
  %3 = load ptr, ptr %2, align 8, !tbaa !358
  %4 = getelementptr inbounds nuw i8, ptr %3, i64 504
  %5 = getelementptr inbounds nuw i8, ptr %3, i64 512
  %6 = load ptr, ptr %5, align 8, !tbaa !264
  %7 = load ptr, ptr %4, align 8, !tbaa !265
  %.not = icmp eq ptr %6, %7
  br i1 %.not, label %._crit_edge, label %.lr.ph

.lr.ph:                                           ; preds = %1
  %8 = getelementptr inbounds nuw i8, ptr %0, i64 1640
  br label %9

._crit_edge:                                      ; preds = %9, %1
  ret void

9:                                                ; preds = %.lr.ph, %9
  %10 = phi ptr [ %7, %.lr.ph ], [ %19, %9 ]
  %.04 = phi i64 [ 0, %.lr.ph ], [ %14, %9 ]
  %11 = load ptr, ptr %8, align 8, !tbaa !293
  %12 = getelementptr inbounds nuw %"class.colvarmodule::rvector", ptr %11, i64 %.04
  %13 = getelementptr inbounds nuw %"class.colvarmodule::atom", ptr %10, i64 %.04, i32 7
  tail call void @llvm.memcpy.p0.p0.i64(ptr noundef nonnull align 8 dereferenceable(24) %13, ptr noundef nonnull align 8 dereferenceable(24) %12, i64 24, i1 false), !tbaa.struct !94
  %14 = add nuw i64 %.04, 1
  %15 = load ptr, ptr %2, align 8, !tbaa !358
  %16 = getelementptr inbounds nuw i8, ptr %15, i64 504
  %17 = getelementptr inbounds nuw i8, ptr %15, i64 512
  %18 = load ptr, ptr %17, align 8, !tbaa !264
  %19 = load ptr, ptr %16, align 8, !tbaa !265
  %20 = ptrtoint ptr %18 to i64
  %21 = ptrtoint ptr %19 to i64
  %22 = sub i64 %20, %21
  %23 = sdiv exact i64 %22, 120
  %24 = icmp ult i64 %14, %23
  br i1 %24, label %9, label %._crit_edge, !llvm.loop !401
}